; Function Attrs: nounwind uwtable
define internal ptr @namespace_replace(ptr noundef readonly captures(none) %0, ptr noundef %1, ptr noundef %2) #0 {
  %4 = icmp eq ptr %1, null
  br i1 %4, label %7, label %5

5:                                                ; preds = %3
  %6 = tail call i32 @_PyArg_NoPositional(ptr noundef nonnull @.str.7, ptr noundef nonnull %1) #3
  %.not = icmp eq i32 %6, 0
  br i1 %.not, label %Py_DECREF.exit19, label %7

7:                                                ; preds = %5, %3
  %8 = getelementptr i8, ptr %0, i64 8
  %.val = load ptr, ptr %8, align 8, !tbaa !10
  %9 = tail call ptr @PyObject_CallNoArgs(ptr noundef %.val) #3
  %.not16 = icmp eq ptr %9, null
  br i1 %.not16, label %Py_DECREF.exit19, label %10

10:                                               ; preds = %7
  %11 = getelementptr inbounds nuw i8, ptr %9, i64 16
  %12 = load ptr, ptr %11, align 8, !tbaa !24
  %13 = getelementptr inbounds nuw i8, ptr %0, i64 16
  %14 = load ptr, ptr %13, align 8, !tbaa !24
  %15 = tail call i32 @PyDict_Update(ptr noundef %12, ptr noundef %14) #3
  %16 = icmp slt i32 %15, 0
  br i1 %16, label %17, label %22

17:                                               ; preds = %10
  %18 = load i32, ptr %9, align 8, !tbaa !9
  %.not.i18 = icmp sgt i32 %18, -1
  br i1 %.not.i18, label %19, label %Py_DECREF.exit19

19:                                               ; preds = %17
  %20 = add nsw i32 %18, -1
  store i32 %20, ptr %9, align 8, !tbaa !9
  %21 = icmp eq i32 %20, 0
  br i1 %21, label %Py_DECREF.exit19.sink.split, label %Py_DECREF.exit19

22:                                               ; preds = %10
  %.not17 = icmp eq ptr %2, null
  br i1 %.not17, label %Py_DECREF.exit19, label %23

23:                                               ; preds = %22
  %24 = load ptr, ptr %11, align 8, !tbaa !24
  %25 = tail call i32 @PyDict_Update(ptr noundef %24, ptr noundef nonnull %2) #3
  %26 = icmp slt i32 %25, 0
  br i1 %26, label %27, label %Py_DECREF.exit19

27:                                               ; preds = %23
  %28 = load i32, ptr %9, align 8, !tbaa !9
  %.not.i = icmp sgt i32 %28, -1
  br i1 %.not.i, label %29, label %Py_DECREF.exit19

29:                                               ; preds = %27
  %30 = add nsw i32 %28, -1
  store i32 %30, ptr %9, align 8, !tbaa !9
  %31 = icmp eq i32 %30, 0
  br i1 %31, label %Py_DECREF.exit19.sink.split, label %Py_DECREF.exit19

Py_DECREF.exit19.sink.split:                      ; preds = %29, %19
  tail call void @_Py_Dealloc(ptr noundef nonnull %9) #3
  br label %Py_DECREF.exit19

Py_DECREF.exit19:                                 ; preds = %Py_DECREF.exit19.sink.split, %29, %27, %19, %17, %7, %23, %22, %5
  %.0 = phi ptr [ null, %5 ], [ null, %7 ], [ %9, %23 ], [ %9, %22 ], [ null, %17 ], [ null, %19 ], [ null, %27 ], [ null, %29 ], [ null, %Py_DECREF.exit19.sink.split ]
  ret ptr %.0
}